; Function Attrs: mustprogress nofree norecurse nosync nounwind willreturn memory(read, inaccessiblemem: none) uwtable
define hidden noundef nonnull align 8 dereferenceable(48) ptr @_ZNK4cvc58internal6theory5arith6linear18ConstraintDatabase14getVariableSCMEj(ptr nocapture noundef nonnull readonly align 8 dereferenceable(488) %this, i32 noundef %v) local_unnamed_addr #9 align 2 {
entry:
  %d_varDatabases = getelementptr inbounds i8, ptr %this, i64 16
  %conv = zext i32 %v to i64
  %0 = load ptr, ptr %d_varDatabases, align 8
  %add.ptr.i = getelementptr inbounds ptr, ptr %0, i64 %conv
  %1 = load ptr, ptr %add.ptr.i, align 8
  %d_constraints = getelementptr inbounds i8, ptr %1, i64 8
  ret ptr %d_constraints
}